target datalayout = "e-m:e-p270:32:32-p271:32:32-p272:64:64-i64:64-i128:128-f80:128-n8:16:32:64-S128"
target triple = "x86_64-pc-linux-gnu"

%struct.surface_t = type { i32, ptr, i32, ptr, ptr }

; Function Attrs: nounwind uwtable
define void @freeSurface(ptr noundef %0) #0 {
  %2 = alloca ptr, align 8
  store ptr %0, ptr %2, align 8, !tbaa !25
  %3 = load ptr, ptr %2, align 8, !tbaa !25
  %4 = getelementptr inbounds nuw %struct.surface_t, ptr %3, i32 0, i32 1
  %5 = load ptr, ptr %4, align 8, !tbaa !70
  call void @free(ptr noundef %5) #12
  %6 = load ptr, ptr %2, align 8, !tbaa !25
  %7 = getelementptr inbounds nuw %struct.surface_t, ptr %6, i32 0, i32 3
  %8 = load ptr, ptr %7, align 8, !tbaa !72
  call void @free(ptr noundef %8) #12
  %9 = load ptr, ptr %2, align 8, !tbaa !25
  %10 = getelementptr inbounds nuw %struct.surface_t, ptr %9, i32 0, i32 4
  %11 = load ptr, ptr %10, align 8, !tbaa !73
  call void @free(ptr noundef %11) #12
  %12 = load ptr, ptr %2, align 8, !tbaa !25
  call void @free(ptr noundef %12) #12
  ret void
}