; Function Attrs: mustprogress nounwind willreturn uwtable
define void @freeSurface(ptr noundef captures(none) %0) local_unnamed_addr #7 {
  %2 = getelementptr inbounds nuw i8, ptr %0, i64 8
  %3 = load ptr, ptr %2, align 8, !tbaa !59
  tail call void @free(ptr noundef %3) #19
  %4 = getelementptr inbounds nuw i8, ptr %0, i64 24
  %5 = load ptr, ptr %4, align 8, !tbaa !61
  tail call void @free(ptr noundef %5) #19
  %6 = getelementptr inbounds nuw i8, ptr %0, i64 32
  %7 = load ptr, ptr %6, align 8, !tbaa !62
  tail call void @free(ptr noundef %7) #19
  tail call void @free(ptr noundef %0) #19
  ret void
}